target datalayout = "e-m:e-p270:32:32-p271:32:32-p272:64:64-i64:64-i128:128-f80:128-n8:16:32:64-S128"
target triple = "x86_64-pc-linux-gnu"

%"class.absl::lts_20240722::Status" = type { i64 }
%"union.absl::lts_20240722::internal_any_invocable::TypeErasedState" = type { %struct.anon }
%struct.anon = type { ptr, i64 }
%"class.absl::lts_20240722::AnyInvocable" = type { %"class.absl::lts_20240722::internal_any_invocable::Impl" }
%"class.absl::lts_20240722::internal_any_invocable::Impl" = type { %"class.absl::lts_20240722::internal_any_invocable::CoreImpl" }
%"class.absl::lts_20240722::internal_any_invocable::CoreImpl" = type { %"union.absl::lts_20240722::internal_any_invocable::TypeErasedState", ptr, ptr }
%"class.std::vector" = type { %"struct.std::_Vector_base" }
%"struct.std::_Vector_base" = type { %"struct.std::_Vector_base<grpc_event_engine::experimental::EventEngine::ResolvedAddress, std::allocator<grpc_event_engine::experimental::EventEngine::ResolvedAddress>>::_Vector_impl" }
%"struct.std::_Vector_base<grpc_event_engine::experimental::EventEngine::ResolvedAddress, std::allocator<grpc_event_engine::experimental::EventEngine::ResolvedAddress>>::_Vector_impl" = type { %"struct.std::_Vector_base<grpc_event_engine::experimental::EventEngine::ResolvedAddress, std::allocator<grpc_event_engine::experimental::EventEngine::ResolvedAddress>>::_Vector_impl_data" }
%"struct.std::_Vector_base<grpc_event_engine::experimental::EventEngine::ResolvedAddress, std::allocator<grpc_event_engine::experimental::EventEngine::ResolvedAddress>>::_Vector_impl_data" = type { ptr, ptr, ptr }
%class.anon.106 = type { %"class.absl::lts_20240722::AnyInvocable", %"class.absl::lts_20240722::Status", [8 x i8] }
%"class.absl::lts_20240722::StatusOr.204" = type { %"class.absl::lts_20240722::internal_statusor::StatusOrData.205" }
%"class.absl::lts_20240722::internal_statusor::StatusOrData.205" = type { %union.anon.206, %union.anon.207 }
%union.anon.206 = type { %"class.absl::lts_20240722::Status" }
%union.anon.207 = type { %"class.std::vector" }

; Function Attrs: inlinehint mustprogress uwtable
define linkonce_odr noundef zeroext i1 @_ZNK4absl12lts_202407226Status2okEv(ptr noundef nonnull align 8 dereferenceable(8) %0) #12 comdat align 2 {
  %2 = alloca ptr, align 8
  store ptr %0, ptr %2, align 8, !tbaa !43
  %3 = load ptr, ptr %2, align 8
  %4 = getelementptr inbounds nuw %"class.absl::lts_20240722::Status", ptr %3, i32 0, i32 0
  %5 = load i64, ptr %4, align 8, !tbaa !45
  %6 = call noundef i64 @_ZN4absl12lts_202407226Status16CodeToInlinedRepENS0_10StatusCodeE(i32 noundef 0)
  %7 = icmp eq i64 %5, %6
  ret i1 %7
}

; Function Attrs: mustprogress nounwind uwtable
define linkonce_odr noundef i64 @_ZN4absl12lts_202407226Status16CodeToInlinedRepENS0_10StatusCodeE(i32 noundef %0) #7 comdat align 2 {
  %2 = alloca i32, align 4
  store i32 %0, ptr %2, align 4, !tbaa !358
  %3 = load i32, ptr %2, align 4, !tbaa !358
  %4 = sext i32 %3 to i64
  %5 = shl i64 %4, 2
  %6 = add i64 %5, 1
  ret i64 %6
}

; Function Attrs: mustprogress uwtable
define linkonce_odr noundef zeroext i1 @_ZNK4absl12lts_2024072217internal_statusor12StatusOrDataISt6vectorIN17grpc_event_engine12experimental11EventEngine15ResolvedAddressESaIS7_EEE2okEv(ptr noundef nonnull align 8 dereferenceable(32) %0) #4 comdat align 2 {
  %2 = alloca ptr, align 8
  store ptr %0, ptr %2, align 8, !tbaa !745
  %3 = load ptr, ptr %2, align 8
  %4 = getelementptr inbounds nuw %"class.absl::lts_20240722::internal_statusor::StatusOrData.205", ptr %3, i32 0, i32 0
  %5 = call noundef zeroext i1 @_ZNK4absl12lts_202407226Status2okEv(ptr noundef nonnull align 8 dereferenceable(8) %4)
  ret i1 %5
}

; Function Attrs: mustprogress nounwind uwtable
define linkonce_odr noundef i64 @_ZN4absl12lts_202407226Status12MovedFromRepEv() #7 comdat align 2 {
  %1 = call noundef i64 @_ZN4absl12lts_202407226Status16CodeToInlinedRepENS0_10StatusCodeE(i32 noundef 13)
  %2 = or i64 %1, 2
  ret i64 %2
}

; Function Attrs: mustprogress nounwind uwtable
define linkonce_odr void @_ZN4absl12lts_202407226StatusC2Em(ptr noundef nonnull align 8 dereferenceable(8) %0, i64 noundef %1) unnamed_addr #7 comdat align 2 {
  %3 = alloca ptr, align 8
  %4 = alloca i64, align 8
  store ptr %0, ptr %3, align 8, !tbaa !43
  store i64 %1, ptr %4, align 8, !tbaa !30
  %5 = load ptr, ptr %3, align 8
  %6 = getelementptr inbounds nuw %"class.absl::lts_20240722::Status", ptr %5, i32 0, i32 0
  %7 = load i64, ptr %4, align 8, !tbaa !30
  store i64 %7, ptr %6, align 8, !tbaa !45
  ret void
}

; Function Attrs: mustprogress uwtable
define linkonce_odr void @_ZN4absl12lts_2024072217internal_statusor12StatusOrDataISt6vectorIN17grpc_event_engine12experimental11EventEngine15ResolvedAddressESaIS7_EEE11EnsureNotOkEv(ptr noundef nonnull align 8 dereferenceable(32) %0) #4 comdat align 2 {
  %2 = alloca ptr, align 8
  store ptr %0, ptr %2, align 8, !tbaa !745
  %3 = load ptr, ptr %2, align 8
  %4 = call noundef zeroext i1 @_ZNK4absl12lts_2024072217internal_statusor12StatusOrDataISt6vectorIN17grpc_event_engine12experimental11EventEngine15ResolvedAddressESaIS7_EEE2okEv(ptr noundef nonnull align 8 dereferenceable(32) %3)
  %5 = zext i1 %4 to i64
  %6 = call i64 @llvm.expect.i64(i64 %5, i64 0)
  %7 = icmp ne i64 %6, 0
  br i1 %7, label %8, label %10

8:                                                ; preds = %1
  %9 = getelementptr inbounds nuw %"class.absl::lts_20240722::internal_statusor::StatusOrData.205", ptr %3, i32 0, i32 0
  call void @_ZN4absl12lts_2024072217internal_statusor6Helper26HandleInvalidStatusCtorArgEPNS0_6StatusE(ptr noundef %9)
  br label %10

10:                                               ; preds = %8, %1
  ret void
}

; Function Attrs: inlinehint mustprogress nounwind uwtable
define linkonce_odr void @_ZN4absl12lts_202407226StatusC2EOS1_(ptr noundef nonnull align 8 dereferenceable(8) %0, ptr noundef nonnull align 8 dereferenceable(8) %1) unnamed_addr #10 comdat align 2 {
  %3 = alloca ptr, align 8
  %4 = alloca ptr, align 8
  store ptr %0, ptr %3, align 8, !tbaa !43
  store ptr %1, ptr %4, align 8, !tbaa !43
  %5 = load ptr, ptr %3, align 8
  %6 = load ptr, ptr %4, align 8, !tbaa !43
  %7 = getelementptr inbounds nuw %"class.absl::lts_20240722::Status", ptr %6, i32 0, i32 0
  %8 = load i64, ptr %7, align 8, !tbaa !45
  call void @_ZN4absl12lts_202407226StatusC2Em(ptr noundef nonnull align 8 dereferenceable(8) %5, i64 noundef %8)
  %9 = call noundef i64 @_ZN4absl12lts_202407226Status12MovedFromRepEv()
  %10 = load ptr, ptr %4, align 8, !tbaa !43
  %11 = getelementptr inbounds nuw %"class.absl::lts_20240722::Status", ptr %10, i32 0, i32 0
  store i64 %9, ptr %11, align 8, !tbaa !45
  ret void
}

; Function Attrs: mustprogress nounwind uwtable
define linkonce_odr noundef ptr @_ZN4absl12lts_2024072222internal_any_invocable4ImplIFvNS0_8StatusOrISt6vectorIN17grpc_event_engine12experimental11EventEngine15ResolvedAddressESaIS8_EEEEEE14ExtractInvokerEv(ptr noundef nonnull align 16 dereferenceable(32) %0) #7 comdat align 2 {
  %2 = alloca ptr, align 8
  %3 = alloca ptr, align 8
  store ptr %0, ptr %2, align 8, !tbaa !504
  %4 = load ptr, ptr %2, align 8
  call void @llvm.lifetime.start.p0(i64 8, ptr %3) #3
  %5 = getelementptr inbounds nuw %"class.absl::lts_20240722::internal_any_invocable::CoreImpl", ptr %4, i32 0, i32 2
  %6 = load ptr, ptr %5, align 8, !tbaa !506
  store ptr %6, ptr %3, align 8, !tbaa !24
  %7 = load ptr, ptr %3, align 8, !tbaa !24
  call void @llvm.lifetime.end.p0(i64 8, ptr %3) #3
  ret ptr %7
}

; Function Attrs: mustprogress uwtable
define linkonce_odr void @_ZN4absl12lts_2024072217internal_statusor12StatusOrDataISt6vectorIN17grpc_event_engine12experimental11EventEngine15ResolvedAddressESaIS7_EEEC2INS0_6StatusETnNSt9enable_ifIXsr3std16is_constructibleISC_OT_EE5valueEiE4typeELi0EEESF_(ptr noundef nonnull align 8 dereferenceable(32) %0, ptr noundef nonnull align 8 dereferenceable(8) %1) unnamed_addr #4 comdat align 2 personality ptr @__gxx_personality_v0 {
  %3 = alloca ptr, align 8
  %4 = alloca ptr, align 8
  %5 = alloca ptr, align 8
  %6 = alloca i32, align 4
  store ptr %0, ptr %3, align 8, !tbaa !745
  store ptr %1, ptr %4, align 8, !tbaa !43
  %7 = load ptr, ptr %3, align 8
  %8 = getelementptr inbounds nuw %"class.absl::lts_20240722::internal_statusor::StatusOrData.205", ptr %7, i32 0, i32 0
  %9 = load ptr, ptr %4, align 8, !tbaa !43
  call void @_ZN4absl12lts_202407226StatusC2EOS1_(ptr noundef nonnull align 8 dereferenceable(8) %8, ptr noundef nonnull align 8 dereferenceable(8) %9) #3
  invoke void @_ZN4absl12lts_2024072217internal_statusor12StatusOrDataISt6vectorIN17grpc_event_engine12experimental11EventEngine15ResolvedAddressESaIS7_EEE11EnsureNotOkEv(ptr noundef nonnull align 8 dereferenceable(32) %7)
          to label %10 unwind label %11

10:                                               ; preds = %2
  ret void

11:                                               ; preds = %2
  %12 = landingpad { ptr, i32 }
          cleanup
  %13 = extractvalue { ptr, i32 } %12, 0
  store ptr %13, ptr %5, align 8
  %14 = extractvalue { ptr, i32 } %12, 1
  store i32 %14, ptr %6, align 4
  call void @_ZN4absl12lts_202407226StatusD2Ev(ptr noundef nonnull align 8 dereferenceable(8) %8) #3
  br label %15

15:                                               ; preds = %11
  %16 = load ptr, ptr %5, align 8
  %17 = load i32, ptr %6, align 4
  %18 = insertvalue { ptr, i32 } poison, ptr %16, 0
  %19 = insertvalue { ptr, i32 } %18, i32 %17, 1
  resume { ptr, i32 } %19
}

; Function Attrs: mustprogress uwtable
define linkonce_odr void @_ZN4absl12lts_2024072222internal_any_invocable4ImplIFvNS0_8StatusOrISt6vectorIN17grpc_event_engine12experimental11EventEngine15ResolvedAddressESaIS8_EEEEEEclESB_(ptr noundef nonnull align 16 dereferenceable(32) %0, ptr noundef %1) #4 comdat align 2 {
  %3 = alloca ptr, align 8
  %4 = alloca ptr, align 8
  store ptr %0, ptr %3, align 8, !tbaa !504
  store ptr %1, ptr %4, align 8, !tbaa !743
  %5 = load ptr, ptr %3, align 8
  %6 = call noundef ptr @_ZN4absl12lts_2024072222internal_any_invocable4ImplIFvNS0_8StatusOrISt6vectorIN17grpc_event_engine12experimental11EventEngine15ResolvedAddressESaIS8_EEEEEE14ExtractInvokerEv(ptr noundef nonnull align 16 dereferenceable(32) %5)
  %7 = getelementptr inbounds nuw %"class.absl::lts_20240722::internal_any_invocable::CoreImpl", ptr %5, i32 0, i32 0
  call void %6(ptr noundef %7, ptr noundef nonnull align 8 dereferenceable(32) %1)
  ret void
}

; Function Attrs: mustprogress uwtable
define linkonce_odr void @_ZN4absl12lts_202407228StatusOrISt6vectorIN17grpc_event_engine12experimental11EventEngine15ResolvedAddressESaIS6_EEEC2INS0_6StatusETnNSt9enable_ifIXsr17internal_statusor29IsConstructionFromStatusValidILb0ES8_T_EE5valueEiE4typeELi0EEEOSD_(ptr noundef nonnull align 8 dereferenceable(32) %0, ptr noundef nonnull align 8 dereferenceable(8) %1) unnamed_addr #4 comdat align 2 {
  %3 = alloca ptr, align 8
  %4 = alloca ptr, align 8
  store ptr %0, ptr %3, align 8, !tbaa !743
  store ptr %1, ptr %4, align 8, !tbaa !43
  %5 = load ptr, ptr %3, align 8
  %6 = load ptr, ptr %4, align 8, !tbaa !43
  call void @_ZN4absl12lts_2024072217internal_statusor12StatusOrDataISt6vectorIN17grpc_event_engine12experimental11EventEngine15ResolvedAddressESaIS7_EEEC2INS0_6StatusETnNSt9enable_ifIXsr3std16is_constructibleISC_OT_EE5valueEiE4typeELi0EEESF_(ptr noundef nonnull align 8 dereferenceable(32) %5, ptr noundef nonnull align 8 dereferenceable(8) %6)
  ret void
}

; Function Attrs: inlinehint mustprogress uwtable
define internal void @"_ZZN17grpc_event_engine12experimental12AresResolver22OnHostbynameDoneLockedEPviiP7hostentEN3$_1clEv"(ptr noundef nonnull align 16 dereferenceable(40) %0) #12 align 2 personality ptr @__gxx_personality_v0 {
  %2 = alloca ptr, align 8
  %3 = alloca %"class.absl::lts_20240722::StatusOr.204", align 8
  %4 = alloca ptr, align 8
  %5 = alloca i32, align 4
  store ptr %0, ptr %2, align 8, !tbaa !24
  %6 = load ptr, ptr %2, align 8
  %7 = getelementptr inbounds nuw %class.anon.106, ptr %6, i32 0, i32 0
  %8 = getelementptr inbounds nuw %class.anon.106, ptr %6, i32 0, i32 1
  call void @_ZN4absl12lts_202407228StatusOrISt6vectorIN17grpc_event_engine12experimental11EventEngine15ResolvedAddressESaIS6_EEEC2INS0_6StatusETnNSt9enable_ifIXsr17internal_statusor29IsConstructionFromStatusValidILb0ES8_T_EE5valueEiE4typeELi0EEEOSD_(ptr noundef nonnull align 8 dereferenceable(32) %3, ptr noundef nonnull align 8 dereferenceable(8) %8)
  invoke void @_ZN4absl12lts_2024072222internal_any_invocable4ImplIFvNS0_8StatusOrISt6vectorIN17grpc_event_engine12experimental11EventEngine15ResolvedAddressESaIS8_EEEEEEclESB_(ptr noundef nonnull align 16 dereferenceable(32) %7, ptr noundef %3)
          to label %9 unwind label %10

9:                                                ; preds = %1
  call void @_ZN4absl12lts_2024072217internal_statusor12StatusOrDataISt6vectorIN17grpc_event_engine12experimental11EventEngine15ResolvedAddressESaIS7_EEED2Ev(ptr noundef nonnull align 8 dereferenceable(32) %3) #3
  ret void

10:                                               ; preds = %1
  %11 = landingpad { ptr, i32 }
          cleanup
  %12 = extractvalue { ptr, i32 } %11, 0
  store ptr %12, ptr %4, align 8
  %13 = extractvalue { ptr, i32 } %11, 1
  store i32 %13, ptr %5, align 4
  call void @_ZN4absl12lts_2024072217internal_statusor12StatusOrDataISt6vectorIN17grpc_event_engine12experimental11EventEngine15ResolvedAddressESaIS7_EEED2Ev(ptr noundef nonnull align 8 dereferenceable(32) %3) #3
  br label %14

14:                                               ; preds = %10
  %15 = load ptr, ptr %4, align 8
  %16 = load i32, ptr %5, align 4
  %17 = insertvalue { ptr, i32 } poison, ptr %15, 0
  %18 = insertvalue { ptr, i32 } %17, i32 %16, 1
  resume { ptr, i32 } %18
}

; Function Attrs: mustprogress uwtable
define internal void @"_ZSt13__invoke_implIvRZN17grpc_event_engine12experimental12AresResolver22OnHostbynameDoneLockedEPviiP7hostentE3$_1JEET_St14__invoke_otherOT0_DpOT1_"(ptr noundef nonnull align 16 dereferenceable(40) %0) #4 {
  %2 = alloca ptr, align 8
  store ptr %0, ptr %2, align 8, !tbaa !24
  %3 = load ptr, ptr %2, align 8, !tbaa !24
  call void @"_ZZN17grpc_event_engine12experimental12AresResolver22OnHostbynameDoneLockedEPviiP7hostentEN3$_1clEv"(ptr noundef nonnull align 16 dereferenceable(40) %3)
  ret void
}

; Function Attrs: mustprogress uwtable
define internal void @"_ZSt8__invokeIRZN17grpc_event_engine12experimental12AresResolver22OnHostbynameDoneLockedEPviiP7hostentE3$_1JEENSt15__invoke_resultIT_JDpT0_EE4typeEOS9_DpOSA_"(ptr noundef nonnull align 16 dereferenceable(40) %0) #4 {
  %2 = alloca ptr, align 8
  store ptr %0, ptr %2, align 8, !tbaa !24
  %3 = load ptr, ptr %2, align 8, !tbaa !24
  call void @"_ZSt13__invoke_implIvRZN17grpc_event_engine12experimental12AresResolver22OnHostbynameDoneLockedEPviiP7hostentE3$_1JEET_St14__invoke_otherOT0_DpOT1_"(ptr noundef nonnull align 16 dereferenceable(40) %3)
  ret void
}

; Function Attrs: inlinehint mustprogress uwtable
define internal void @"_ZSt6invokeIRZN17grpc_event_engine12experimental12AresResolver22OnHostbynameDoneLockedEPviiP7hostentE3$_1JEENSt13invoke_resultIT_JDpT0_EE4typeEOS9_DpOSA_"(ptr noundef nonnull align 16 dereferenceable(40) %0) #12 {
  %2 = alloca ptr, align 8
  store ptr %0, ptr %2, align 8, !tbaa !24
  %3 = load ptr, ptr %2, align 8, !tbaa !24
  call void @"_ZSt8__invokeIRZN17grpc_event_engine12experimental12AresResolver22OnHostbynameDoneLockedEPviiP7hostentE3$_1JEENSt15__invoke_resultIT_JDpT0_EE4typeEOS9_DpOSA_"(ptr noundef nonnull align 16 dereferenceable(40) %3)
  ret void
}

; Function Attrs: mustprogress uwtable
define internal void @"_ZN4absl12lts_2024072222internal_any_invocable7InvokeRIvRZN17grpc_event_engine12experimental12AresResolver22OnHostbynameDoneLockedEPviiP7hostentE3$_1JEvEEvOT0_DpOT1_"(ptr noundef nonnull align 16 dereferenceable(40) %0) #4 {
  %2 = alloca ptr, align 8
  store ptr %0, ptr %2, align 8, !tbaa !24
  %3 = load ptr, ptr %2, align 8, !tbaa !24
  call void @"_ZSt6invokeIRZN17grpc_event_engine12experimental12AresResolver22OnHostbynameDoneLockedEPviiP7hostentE3$_1JEENSt13invoke_resultIT_JDpT0_EE4typeEOS9_DpOSA_"(ptr noundef nonnull align 16 dereferenceable(40) %3)
  ret void
}

; Function Attrs: mustprogress uwtable
define internal void @"_ZN4absl12lts_2024072222internal_any_invocable13RemoteInvokerILb0EvRZN17grpc_event_engine12experimental12AresResolver22OnHostbynameDoneLockedEPviiP7hostentE3$_1JEEET0_PNS1_15TypeErasedStateEDpNS1_18ForwardedParameterIT2_E4typeE"(ptr noundef %0) #4 {
  %2 = alloca ptr, align 8
  %3 = alloca ptr, align 8
  store ptr %0, ptr %2, align 8, !tbaa !509
  call void @llvm.lifetime.start.p0(i64 8, ptr %3) #3
  %4 = load ptr, ptr %2, align 8, !tbaa !509
  %5 = getelementptr inbounds nuw %struct.anon, ptr %4, i32 0, i32 0
  %6 = load ptr, ptr %5, align 16, !tbaa !133
  store ptr %6, ptr %3, align 8, !tbaa !24
  %7 = load ptr, ptr %3, align 8, !tbaa !24
  call void @"_ZN4absl12lts_2024072222internal_any_invocable7InvokeRIvRZN17grpc_event_engine12experimental12AresResolver22OnHostbynameDoneLockedEPviiP7hostentE3$_1JEvEEvOT0_DpOT1_"(ptr noundef nonnull align 16 dereferenceable(40) %7)
  call void @llvm.lifetime.end.p0(i64 8, ptr %3) #3
  ret void
}