; Function Attrs: mustprogress uwtable
define internal void @"_ZN4absl12lts_2024072222internal_any_invocable13RemoteInvokerILb0EvRZN17grpc_event_engine12experimental12AresResolver22OnHostbynameDoneLockedEPviiP7hostentE3$_1JEEET0_PNS1_15TypeErasedStateEDpNS1_18ForwardedParameterIT2_E4typeE"(ptr noundef readonly captures(none) %0) #3 personality ptr @__gxx_personality_v0 {
  %2 = alloca %"class.absl::lts_20240722::StatusOr.204", align 8
  %3 = load ptr, ptr %0, align 16, !tbaa !21
  call void @llvm.lifetime.start.p0(i64 32, ptr nonnull %2)
  %4 = getelementptr inbounds nuw i8, ptr %3, i64 32
  %5 = load i64, ptr %4, align 8, !tbaa !18
  store i64 %5, ptr %2, align 8, !tbaa !18
  store i64 55, ptr %4, align 8, !tbaa !18
  %6 = icmp eq i64 %5, 1
  br i1 %6, label %7, label %_ZN4absl12lts_202407228StatusOrISt6vectorIN17grpc_event_engine12experimental11EventEngine15ResolvedAddressESaIS6_EEEC2INS0_6StatusETnNSt9enable_ifIXsr17internal_statusor29IsConstructionFromStatusValidILb0ES8_T_EE5valueEiE4typeELi0EEEOSD_.exit.i.i.i.i.i, !prof !20

7:                                                ; preds = %1
  invoke void @_ZN4absl12lts_2024072217internal_statusor6Helper26HandleInvalidStatusCtorArgEPNS0_6StatusE(ptr noundef nonnull align 8 dereferenceable(32) %2)
          to label %_ZN4absl12lts_202407228StatusOrISt6vectorIN17grpc_event_engine12experimental11EventEngine15ResolvedAddressESaIS6_EEEC2INS0_6StatusETnNSt9enable_ifIXsr17internal_statusor29IsConstructionFromStatusValidILb0ES8_T_EE5valueEiE4typeELi0EEEOSD_.exit.i.i.i.i.i unwind label %8

common.resume.i.i.i.i.i:                          ; preds = %29, %8
  %common.resume.op.i.i.i.i.i = phi { ptr, i32 } [ %9, %8 ], [ %30, %29 ]
  resume { ptr, i32 } %common.resume.op.i.i.i.i.i

8:                                                ; preds = %7
  %9 = landingpad { ptr, i32 }
          cleanup
  call void @_ZN4absl12lts_202407226StatusD2Ev(ptr noundef nonnull align 8 dereferenceable(32) %2) #34
  br label %common.resume.i.i.i.i.i

_ZN4absl12lts_202407228StatusOrISt6vectorIN17grpc_event_engine12experimental11EventEngine15ResolvedAddressESaIS6_EEEC2INS0_6StatusETnNSt9enable_ifIXsr17internal_statusor29IsConstructionFromStatusValidILb0ES8_T_EE5valueEiE4typeELi0EEEOSD_.exit.i.i.i.i.i: ; preds = %7, %1
  %10 = getelementptr inbounds nuw i8, ptr %3, i64 24
  %11 = load ptr, ptr %10, align 8, !tbaa !110
  invoke void %11(ptr noundef nonnull align 16 dereferenceable(40) %3, ptr noundef nonnull align 8 dereferenceable(32) %2)
          to label %_ZN4absl12lts_2024072222internal_any_invocable4ImplIFvNS0_8StatusOrISt6vectorIN17grpc_event_engine12experimental11EventEngine15ResolvedAddressESaIS8_EEEEEEclESB_.exit.i.i.i.i.i unwind label %29

_ZN4absl12lts_2024072222internal_any_invocable4ImplIFvNS0_8StatusOrISt6vectorIN17grpc_event_engine12experimental11EventEngine15ResolvedAddressESaIS8_EEEEEEclESB_.exit.i.i.i.i.i: ; preds = %_ZN4absl12lts_202407228StatusOrISt6vectorIN17grpc_event_engine12experimental11EventEngine15ResolvedAddressESaIS6_EEEC2INS0_6StatusETnNSt9enable_ifIXsr17internal_statusor29IsConstructionFromStatusValidILb0ES8_T_EE5valueEiE4typeELi0EEEOSD_.exit.i.i.i.i.i
  %12 = load i64, ptr %2, align 8, !tbaa !18
  %13 = icmp eq i64 %12, 1
  br i1 %13, label %_ZN4absl12lts_202407226StatusD2Ev.exit.i.i.i.i.i.i, label %22

_ZN4absl12lts_202407226StatusD2Ev.exit.i.i.i.i.i.i: ; preds = %_ZN4absl12lts_2024072222internal_any_invocable4ImplIFvNS0_8StatusOrISt6vectorIN17grpc_event_engine12experimental11EventEngine15ResolvedAddressESaIS8_EEEEEEclESB_.exit.i.i.i.i.i
  %14 = getelementptr inbounds nuw i8, ptr %2, i64 8
  %15 = load ptr, ptr %14, align 8, !tbaa !123
  %.not.i.i.i.i.i.i.i.i.i = icmp eq ptr %15, null
  br i1 %.not.i.i.i.i.i.i.i.i.i, label %"_ZN4absl12lts_2024072222internal_any_invocable7InvokeRIvRZN17grpc_event_engine12experimental12AresResolver22OnHostbynameDoneLockedEPviiP7hostentE3$_1JEvEEvOT0_DpOT1_.exit", label %16

16:                                               ; preds = %_ZN4absl12lts_202407226StatusD2Ev.exit.i.i.i.i.i.i
  %17 = getelementptr inbounds nuw i8, ptr %2, i64 24
  %18 = load ptr, ptr %17, align 8, !tbaa !127
  %19 = ptrtoint ptr %18 to i64
  %20 = ptrtoint ptr %15 to i64
  %21 = sub i64 %19, %20
  call void @_ZdlPvm(ptr noundef nonnull %15, i64 noundef %21) #38
  br label %"_ZN4absl12lts_2024072222internal_any_invocable7InvokeRIvRZN17grpc_event_engine12experimental12AresResolver22OnHostbynameDoneLockedEPviiP7hostentE3$_1JEvEEvOT0_DpOT1_.exit"

22:                                               ; preds = %_ZN4absl12lts_2024072222internal_any_invocable4ImplIFvNS0_8StatusOrISt6vectorIN17grpc_event_engine12experimental11EventEngine15ResolvedAddressESaIS8_EEEEEEclESB_.exit.i.i.i.i.i
  %23 = and i64 %12, 1
  %.not.i.i1.i.i.i.i.i.i = icmp eq i64 %23, 0
  br i1 %.not.i.i1.i.i.i.i.i.i, label %24, label %"_ZN4absl12lts_2024072222internal_any_invocable7InvokeRIvRZN17grpc_event_engine12experimental12AresResolver22OnHostbynameDoneLockedEPviiP7hostentE3$_1JEvEEvOT0_DpOT1_.exit"

24:                                               ; preds = %22
  %25 = inttoptr i64 %12 to ptr
  invoke void @_ZNK4absl12lts_2024072215status_internal9StatusRep5UnrefEv(ptr noundef nonnull align 8 dereferenceable(48) %25)
          to label %"_ZN4absl12lts_2024072222internal_any_invocable7InvokeRIvRZN17grpc_event_engine12experimental12AresResolver22OnHostbynameDoneLockedEPviiP7hostentE3$_1JEvEEvOT0_DpOT1_.exit" unwind label %26

26:                                               ; preds = %24
  %27 = landingpad { ptr, i32 }
          catch ptr null
  %28 = extractvalue { ptr, i32 } %27, 0
  call void @__clang_call_terminate(ptr %28) #37
  unreachable

29:                                               ; preds = %_ZN4absl12lts_202407228StatusOrISt6vectorIN17grpc_event_engine12experimental11EventEngine15ResolvedAddressESaIS6_EEEC2INS0_6StatusETnNSt9enable_ifIXsr17internal_statusor29IsConstructionFromStatusValidILb0ES8_T_EE5valueEiE4typeELi0EEEOSD_.exit.i.i.i.i.i
  %30 = landingpad { ptr, i32 }
          cleanup
  call void @_ZN4absl12lts_2024072217internal_statusor12StatusOrDataISt6vectorIN17grpc_event_engine12experimental11EventEngine15ResolvedAddressESaIS7_EEED2Ev(ptr noundef nonnull align 8 dereferenceable(32) %2) #34
  br label %common.resume.i.i.i.i.i

"_ZN4absl12lts_2024072222internal_any_invocable7InvokeRIvRZN17grpc_event_engine12experimental12AresResolver22OnHostbynameDoneLockedEPviiP7hostentE3$_1JEvEEvOT0_DpOT1_.exit": ; preds = %_ZN4absl12lts_202407226StatusD2Ev.exit.i.i.i.i.i.i, %16, %22, %24
  call void @llvm.lifetime.end.p0(i64 32, ptr nonnull %2)
  ret void
}